target datalayout = "e-m:e-p270:32:32-p271:32:32-p272:64:64-i64:64-i128:128-f80:128-n8:16:32:64-S128"
target triple = "x86_64-pc-linux-gnu"

%struct.AVFilterContext = type { ptr, ptr, ptr, ptr, ptr, i32, ptr, ptr, i32, ptr, ptr, i32, i32, ptr, ptr, ptr, ptr, i32, ptr, i32, i32 }
%struct.EvalContext = type { ptr, ptr, i32, %struct.AVChannelLayout, ptr, i32, i32, i32, i64, ptr, ptr, i32, i64, i64, [6 x double], ptr }
%struct.AVChannelLayout = type { i32, i32, %union.anon.1, ptr }
%union.anon.1 = type { i64 }
%struct.AVFilterLink = type { ptr, ptr, ptr, ptr, i32, i32, i32, i32, %struct.AVRational, i32, i32, i32, %struct.AVChannelLayout, %struct.AVRational, ptr, i32, %struct.AVFilterFormatsConfig, %struct.AVFilterFormatsConfig }
%struct.AVRational = type { i32, i32 }
%struct.AVFilterFormatsConfig = type { ptr, ptr, ptr, ptr, ptr }

@.str.5 = private unnamed_addr constant [41 x i8] c"sample_rate:%d chlayout:%s duration:%ld\0A\00", align 1

; Function Attrs: nounwind uwtable
define internal i32 @config_props(ptr noundef %0) #1 {
  %2 = alloca ptr, align 8
  %3 = alloca ptr, align 8
  %4 = alloca [128 x i8], align 16
  %5 = alloca %struct.AVRational, align 4
  store ptr %0, ptr %2, align 8, !tbaa !53
  call void @llvm.lifetime.start.p0(i64 8, ptr %3) #9
  %6 = load ptr, ptr %2, align 8, !tbaa !53
  %7 = getelementptr inbounds nuw %struct.AVFilterLink, ptr %6, i32 0, i32 0
  %8 = load ptr, ptr %7, align 8, !tbaa !55
  %9 = getelementptr inbounds nuw %struct.AVFilterContext, ptr %8, i32 0, i32 9
  %10 = load ptr, ptr %9, align 8, !tbaa !9
  store ptr %10, ptr %3, align 8, !tbaa !22
  call void @llvm.lifetime.start.p0(i64 128, ptr %4) #9
  %11 = load ptr, ptr %2, align 8, !tbaa !53
  %12 = getelementptr inbounds nuw %struct.AVFilterLink, ptr %11, i32 0, i32 13
  %13 = getelementptr inbounds nuw %struct.AVRational, ptr %5, i32 0, i32 0
  store i32 1, ptr %13, align 4, !tbaa !83
  %14 = getelementptr inbounds nuw %struct.AVRational, ptr %5, i32 0, i32 1
  %15 = load ptr, ptr %3, align 8, !tbaa !22
  %16 = getelementptr inbounds nuw %struct.EvalContext, ptr %15, i32 0, i32 2
  %17 = load i32, ptr %16, align 8, !tbaa !51
  store i32 %17, ptr %14, align 4, !tbaa !84
  call void @llvm.memcpy.p0.p0.i64(ptr align 8 %12, ptr align 4 %5, i64 8, i1 false), !tbaa.struct !85
  %18 = load ptr, ptr %3, align 8, !tbaa !22
  %19 = getelementptr inbounds nuw %struct.EvalContext, ptr %18, i32 0, i32 2
  %20 = load i32, ptr %19, align 8, !tbaa !51
  %21 = load ptr, ptr %2, align 8, !tbaa !53
  %22 = getelementptr inbounds nuw %struct.AVFilterLink, ptr %21, i32 0, i32 11
  store i32 %20, ptr %22, align 8, !tbaa !86
  %23 = load ptr, ptr %3, align 8, !tbaa !22
  %24 = getelementptr inbounds nuw %struct.EvalContext, ptr %23, i32 0, i32 2
  %25 = load i32, ptr %24, align 8, !tbaa !51
  %26 = sitofp i32 %25 to double
  %27 = load ptr, ptr %3, align 8, !tbaa !22
  %28 = getelementptr inbounds nuw %struct.EvalContext, ptr %27, i32 0, i32 14
  %29 = getelementptr inbounds [6 x double], ptr %28, i64 0, i64 5
  store double %26, ptr %29, align 8, !tbaa !68
  %30 = load ptr, ptr %3, align 8, !tbaa !22
  %31 = getelementptr inbounds nuw %struct.EvalContext, ptr %30, i32 0, i32 14
  %32 = getelementptr inbounds [6 x double], ptr %31, i64 0, i64 2
  store double 0x7FF8000000000000, ptr %32, align 8, !tbaa !68
  %33 = load ptr, ptr %2, align 8, !tbaa !53
  %34 = getelementptr inbounds nuw %struct.AVFilterLink, ptr %33, i32 0, i32 12
  %35 = getelementptr inbounds nuw %struct.AVChannelLayout, ptr %34, i32 0, i32 1
  %36 = load i32, ptr %35, align 4, !tbaa !87
  %37 = sitofp i32 %36 to double
  %38 = load ptr, ptr %3, align 8, !tbaa !22
  %39 = getelementptr inbounds nuw %struct.EvalContext, ptr %38, i32 0, i32 14
  %40 = getelementptr inbounds [6 x double], ptr %39, i64 0, i64 3
  store double %37, ptr %40, align 8, !tbaa !68
  %41 = load ptr, ptr %3, align 8, !tbaa !22
  %42 = getelementptr inbounds nuw %struct.EvalContext, ptr %41, i32 0, i32 3
  %43 = getelementptr inbounds [128 x i8], ptr %4, i64 0, i64 0
  %44 = call i32 @av_channel_layout_describe(ptr noundef %42, ptr noundef %43, i64 noundef 128)
  %45 = load ptr, ptr %2, align 8, !tbaa !53
  %46 = getelementptr inbounds nuw %struct.AVFilterLink, ptr %45, i32 0, i32 0
  %47 = load ptr, ptr %46, align 8, !tbaa !55
  %48 = load ptr, ptr %3, align 8, !tbaa !22
  %49 = getelementptr inbounds nuw %struct.EvalContext, ptr %48, i32 0, i32 2
  %50 = load i32, ptr %49, align 8, !tbaa !51
  %51 = getelementptr inbounds [128 x i8], ptr %4, i64 0, i64 0
  %52 = load ptr, ptr %3, align 8, !tbaa !22
  %53 = getelementptr inbounds nuw %struct.EvalContext, ptr %52, i32 0, i32 12
  %54 = load i64, ptr %53, align 8, !tbaa !63
  call void (ptr, i32, ptr, ...) @av_log(ptr noundef %47, i32 noundef 40, ptr noundef @.str.5, i32 noundef %50, ptr noundef %51, i64 noundef %54)
  call void @llvm.lifetime.end.p0(i64 128, ptr %4) #9
  call void @llvm.lifetime.end.p0(i64 8, ptr %3) #9
  ret i32 0
}