; Function Attrs: nounwind uwtable
define internal noundef i32 @config_props(ptr noundef captures(none) initializes((64, 68), (96, 104)) %0) #1 {
  %2 = alloca [128 x i8], align 16
  %3 = load ptr, ptr %0, align 8, !tbaa !48
  %4 = getelementptr inbounds nuw i8, ptr %3, i64 72
  %5 = load ptr, ptr %4, align 8, !tbaa !4
  call void @llvm.lifetime.start.p0(i64 128, ptr nonnull %2) #11
  %6 = getelementptr inbounds nuw i8, ptr %0, i64 96
  %7 = getelementptr inbounds nuw i8, ptr %5, i64 16
  %8 = load i32, ptr %7, align 8, !tbaa !44
  store i32 1, ptr %6, align 8, !tbaa !39
  %.sroa.2.0..sroa_idx = getelementptr inbounds nuw i8, ptr %0, i64 100
  store i32 %8, ptr %.sroa.2.0..sroa_idx, align 4, !tbaa !39
  %9 = load i32, ptr %7, align 8, !tbaa !44
  %10 = getelementptr inbounds nuw i8, ptr %0, i64 64
  store i32 %9, ptr %10, align 8, !tbaa !75
  %11 = sitofp i32 %9 to double
  %12 = getelementptr inbounds nuw i8, ptr %5, i64 160
  store double %11, ptr %12, align 8, !tbaa !59
  %13 = getelementptr inbounds nuw i8, ptr %5, i64 136
  store double 0x7FF8000000000000, ptr %13, align 8, !tbaa !59
  %14 = getelementptr inbounds nuw i8, ptr %0, i64 76
  %15 = load i32, ptr %14, align 4, !tbaa !76
  %16 = sitofp i32 %15 to double
  %17 = getelementptr inbounds nuw i8, ptr %5, i64 144
  store double %16, ptr %17, align 8, !tbaa !59
  %18 = getelementptr inbounds nuw i8, ptr %5, i64 24
  %19 = call i32 @av_channel_layout_describe(ptr noundef nonnull %18, ptr noundef nonnull %2, i64 noundef 128) #11
  %20 = load ptr, ptr %0, align 8, !tbaa !48
  %21 = load i32, ptr %7, align 8, !tbaa !44
  %22 = getelementptr inbounds nuw i8, ptr %5, i64 104
  %23 = load i64, ptr %22, align 8, !tbaa !56
  call void (ptr, i32, ptr, ...) @av_log(ptr noundef %20, i32 noundef 40, ptr noundef nonnull @.str.5, i32 noundef %21, ptr noundef nonnull %2, i64 noundef %23) #11
  call void @llvm.lifetime.end.p0(i64 128, ptr nonnull %2) #11
  ret i32 0
}